target datalayout = "e-m:e-p270:32:32-p271:32:32-p272:64:64-i64:64-i128:128-f80:128-n8:16:32:64-S128"
target triple = "x86_64-unknown-linux-gnu"

%"class.std::__cxx11::basic_string" = type { %"struct.std::__cxx11::basic_string<char>::_Alloc_hider", i64, %union.anon }
%"struct.std::__cxx11::basic_string<char>::_Alloc_hider" = type { ptr }
%union.anon = type { i64, [8 x i8] }
%"class.Imf_3_2::StdOFStream" = type <{ %"class.Imf_3_2::OStream", ptr, i8, [7 x i8] }>
%"class.Imf_3_2::OStream" = type { ptr, %"class.std::__cxx11::basic_string" }

; Function Attrs: mustprogress nounwind uwtable
define void @_ZN7Imf_3_211StdOFStreamD2Ev(ptr noundef nonnull align 8 dereferenceable(49) %this) unnamed_addr #5 align 2 {
entry:
  %this.addr = alloca ptr, align 8
  store ptr %this, ptr %this.addr, align 8
  %this1 = load ptr, ptr %this.addr, align 8
  store ptr getelementptr inbounds ({ [7 x ptr] }, ptr @_ZTVN7Imf_3_211StdOFStreamE, i32 0, i32 0, i32 2), ptr %this1, align 8
  %_deleteStream = getelementptr inbounds %"class.Imf_3_2::StdOFStream", ptr %this1, i32 0, i32 2
  %0 = load i8, ptr %_deleteStream, align 8
  %tobool = trunc i8 %0 to i1
  br i1 %tobool, label %if.then, label %if.end

if.then:                                          ; preds = %entry
  %_os = getelementptr inbounds %"class.Imf_3_2::StdOFStream", ptr %this1, i32 0, i32 1
  %1 = load ptr, ptr %_os, align 8
  %isnull = icmp eq ptr %1, null
  br i1 %isnull, label %delete.end, label %delete.notnull

delete.notnull:                                   ; preds = %if.then
  %vtable = load ptr, ptr %1, align 8
  %vfn = getelementptr inbounds ptr, ptr %vtable, i64 1
  %2 = load ptr, ptr %vfn, align 8
  call void %2(ptr noundef nonnull align 8 dereferenceable(248) %1) #3
  br label %delete.end

delete.end:                                       ; preds = %delete.notnull, %if.then
  br label %if.end

if.end:                                           ; preds = %delete.end, %entry
  call void @_ZN7Imf_3_27OStreamD2Ev(ptr noundef nonnull align 8 dereferenceable(40) %this1) #3
  ret void
}